target datalayout = "e-m:e-p270:32:32-p271:32:32-p272:64:64-i64:64-i128:128-f80:128-n8:16:32:64-S128"
target triple = "x86_64-pc-linux-gnu"

; Function Attrs: nounwind uwtable
define dso_local ptr @GetPublicationByName(ptr noundef %0, i1 noundef zeroext %1) #0 {
  %3 = alloca ptr, align 8
  %4 = alloca i8, align 1
  %5 = alloca i32, align 4
  store ptr %0, ptr %3, align 8
  %6 = zext i1 %1 to i8
  store i8 %6, ptr %4, align 1
  call void @llvm.lifetime.start.p0(i64 4, ptr %5) #7
  %7 = load ptr, ptr %3, align 8
  %8 = load i8, ptr %4, align 1, !range !4, !noundef !5
  %9 = trunc i8 %8 to i1
  %10 = call i32 @get_publication_oid(ptr noundef %7, i1 noundef zeroext %9)
  store i32 %10, ptr %5, align 4
  %11 = load i32, ptr %5, align 4
  %12 = icmp ne i32 %11, 0
  br i1 %12, label %13, label %16

13:                                               ; preds = %2
  %14 = load i32, ptr %5, align 4
  %15 = call ptr @GetPublication(i32 noundef %14)
  br label %17

16:                                               ; preds = %2
  br label %17

17:                                               ; preds = %16, %13
  %18 = phi ptr [ %15, %13 ], [ null, %16 ]
  call void @llvm.lifetime.end.p0(i64 4, ptr %5) #7
  ret ptr %18
}