; Function Attrs: nounwind uwtable
define dso_local noundef ptr @GetPublicationByName(ptr noundef %0, i1 noundef zeroext %1) local_unnamed_addr #0 {
  %3 = tail call i32 @get_publication_oid(ptr noundef %0, i1 noundef zeroext %1) #6
  %.not = icmp eq i32 %3, 0
  br i1 %.not, label %6, label %4

4:                                                ; preds = %2
  %5 = tail call ptr @GetPublication(i32 noundef %3)
  br label %6

6:                                                ; preds = %2, %4
  %7 = phi ptr [ %5, %4 ], [ null, %2 ]
  ret ptr %7
}